target datalayout = "e-m:e-p270:32:32-p271:32:32-p272:64:64-i64:64-i128:128-f80:128-n8:16:32:64-S128"
target triple = "x86_64-pc-linux-gnu"

%struct.cert_store_t = type { %union.pthread_mutex_t, i8, %struct.cert_list_t, %struct.cert_list_t }
%union.pthread_mutex_t = type { %struct.__pthread_mutex_s }
%struct.__pthread_mutex_s = type { i32, i32, i32, i32, i32, i16, i16, %struct.__pthread_internal_list }
%struct.__pthread_internal_list = type { ptr, ptr }
%struct.cert_list_t = type { ptr, i64 }

@_cert_store = internal global %struct.cert_store_t zeroinitializer, align 8
@.str = private unnamed_addr constant [19 x i8] c"Mutex lock failed\0A\00", align 1
@.str.1 = private unnamed_addr constant [21 x i8] c"Mutex unlock failed\0A\00", align 1

; Function Attrs: nounwind uwtable
define i32 @cert_store_set_trusted(ptr noundef %0, i64 noundef %1) #0 {
  %3 = alloca ptr, align 8
  %4 = alloca i64, align 8
  %5 = alloca i32, align 4
  %6 = alloca i32, align 4
  store ptr %0, ptr %3, align 8
  store i64 %1, ptr %4, align 8
  store i32 8, ptr %5, align 4
  %7 = call i32 @pthread_mutex_lock(ptr noundef @_cert_store) #10
  store i32 %7, ptr %6, align 4
  %8 = load i32, ptr %6, align 4
  %9 = icmp ne i32 %8, 0
  br i1 %9, label %10, label %13

10:                                               ; preds = %2
  %11 = load i32, ptr %6, align 4
  %12 = call ptr @__errno_location() #11
  store i32 %11, ptr %12, align 4
  call void (i32, ptr, ...) @mprintf(i32 noundef 5, ptr noundef @.str)
  br label %13

13:                                               ; preds = %10, %2
  %14 = load i8, ptr getelementptr inbounds (%struct.cert_store_t, ptr @_cert_store, i32 0, i32 1), align 8
  %15 = trunc i8 %14 to i1
  br i1 %15, label %16, label %20

16:                                               ; preds = %13
  %17 = load ptr, ptr %3, align 8
  %18 = load i64, ptr %4, align 8
  %19 = call i32 @cert_store_set_trusted_int(ptr noundef %17, i64 noundef %18)
  store i32 %19, ptr %5, align 4
  br label %20

20:                                               ; preds = %16, %13
  %21 = call i32 @pthread_mutex_unlock(ptr noundef @_cert_store) #10
  store i32 %21, ptr %6, align 4
  %22 = load i32, ptr %6, align 4
  %23 = icmp ne i32 %22, 0
  br i1 %23, label %24, label %27

24:                                               ; preds = %20
  %25 = load i32, ptr %6, align 4
  %26 = call ptr @__errno_location() #11
  store i32 %25, ptr %26, align 4
  call void (i32, ptr, ...) @mprintf(i32 noundef 5, ptr noundef @.str.1)
  br label %27

27:                                               ; preds = %24, %20
  %28 = load i32, ptr %5, align 4
  ret i32 %28
}