; Function Attrs: nounwind uwtable
define noundef i32 @cert_store_set_trusted(ptr noundef %0, i64 noundef %1) local_unnamed_addr #1 {
  %3 = tail call i32 @pthread_mutex_lock(ptr noundef nonnull @_cert_store) #15
  %.not = icmp eq i32 %3, 0
  br i1 %.not, label %6, label %4

4:                                                ; preds = %2
  %5 = tail call ptr @__errno_location() #16
  store i32 %3, ptr %5, align 4
  tail call void (i32, ptr, ...) @mprintf(i32 noundef 5, ptr noundef nonnull @.str) #15
  br label %6

6:                                                ; preds = %4, %2
  %7 = load i8, ptr getelementptr inbounds (%struct.cert_store_t, ptr @_cert_store, i64 0, i32 1), align 8
  %8 = trunc i8 %7 to i1
  br i1 %8, label %9, label %11

9:                                                ; preds = %6
  %10 = tail call i32 @cert_store_set_trusted_int(ptr noundef %0, i64 noundef %1), !range !4
  br label %11

11:                                               ; preds = %9, %6
  %.0 = phi i32 [ %10, %9 ], [ 8, %6 ]
  %12 = tail call i32 @pthread_mutex_unlock(ptr noundef nonnull @_cert_store) #15
  %.not8 = icmp eq i32 %12, 0
  br i1 %.not8, label %15, label %13

13:                                               ; preds = %11
  %14 = tail call ptr @__errno_location() #16
  store i32 %12, ptr %14, align 4
  tail call void (i32, ptr, ...) @mprintf(i32 noundef 5, ptr noundef nonnull @.str.1) #15
  br label %15

15:                                               ; preds = %13, %11
  ret i32 %.0
}